; Function Attrs: mustprogress nofree norecurse nosync nounwind willreturn memory(read, inaccessiblemem: none) uwtable
define dso_local noundef i32 @_ZNK4llvm22ConstantDataSequential14getNumElementsEv(ptr nocapture noundef nonnull readonly align 8 dereferenceable(40) %0) local_unnamed_addr #3 align 2 {
  %2 = getelementptr inbounds nuw i8, ptr %0, i64 8
  %3 = load ptr, ptr %2, align 8
  %4 = getelementptr inbounds nuw i8, ptr %3, i64 8
  %5 = load i32, ptr %4, align 8
  %6 = and i32 %5, 255
  %7 = icmp ne i32 %6, 16
  %.not4 = icmp eq ptr %3, null
  %.not = or i1 %.not4, %7
  %8 = getelementptr inbounds nuw i8, ptr %3, i64 32
  br i1 %.not, label %12, label %9

9:                                                ; preds = %1
  %10 = load i64, ptr %8, align 8
  %11 = trunc i64 %10 to i32
  br label %14

12:                                               ; preds = %1
  %13 = load i32, ptr %8, align 8
  br label %14

14:                                               ; preds = %12, %9
  %.0 = phi i32 [ %11, %9 ], [ %13, %12 ]
  ret i32 %.0
}